target datalayout = "e-m:e-p270:32:32-p271:32:32-p272:64:64-i64:64-i128:128-f80:128-n8:16:32:64-S128"
target triple = "x86_64-pc-linux-gnu"

%struct.MpegTSContext = type { ptr, ptr, i32, i64, i32, i32, i32, i64, i64, i32, ptr, i64, i32, i32, i32, i32, i32, i32, i32, i32, i32, ptr, [8192 x i8], [8192 x ptr], i32, ptr, [32 x ptr] }
%struct.MpegTSFilter = type { i32, i32, i32, i64, i32, i32, %union.anon.0 }
%union.anon.0 = type { %struct.MpegTSSectionFilter }
%struct.MpegTSSectionFilter = type { i32, i32, i32, i32, i32, ptr, i8, ptr, ptr }
%struct.SLConfigDescr = type { i32, i32, i32, i32, i32, i32, i32, i32, i32, i32, i32, i32, i32, i32 }
%struct.MpegTSPESFilter = type { ptr, ptr }
%struct.PESContext = type { i32, i32, i32, ptr, ptr, ptr, ptr, i32, i32, i32, i32, i32, i32, i8, i64, i64, i64, [264 x i8], ptr, %struct.SLConfigDescr, i32 }

; Function Attrs: nounwind uwtable
define internal void @mpegts_close_filter(ptr noundef %0, ptr noundef %1) #0 {
  %3 = alloca ptr, align 8
  %4 = alloca ptr, align 8
  %5 = alloca i32, align 4
  %6 = alloca ptr, align 8
  store ptr %0, ptr %3, align 8, !tbaa !20
  store ptr %1, ptr %4, align 8, !tbaa !50
  call void @llvm.lifetime.start.p0(i64 4, ptr %5) #12
  %7 = load ptr, ptr %4, align 8, !tbaa !50
  %8 = getelementptr inbounds nuw %struct.MpegTSFilter, ptr %7, i32 0, i32 0
  %9 = load i32, ptr %8, align 8, !tbaa !134
  store i32 %9, ptr %5, align 4, !tbaa !11
  %10 = load ptr, ptr %4, align 8, !tbaa !50
  %11 = getelementptr inbounds nuw %struct.MpegTSFilter, ptr %10, i32 0, i32 5
  %12 = load i32, ptr %11, align 4, !tbaa !109
  %13 = icmp eq i32 %12, 1
  br i1 %13, label %14, label %18

14:                                               ; preds = %2
  %15 = load ptr, ptr %4, align 8, !tbaa !50
  %16 = getelementptr inbounds nuw %struct.MpegTSFilter, ptr %15, i32 0, i32 6
  %17 = getelementptr inbounds nuw %struct.MpegTSSectionFilter, ptr %16, i32 0, i32 5
  call void @av_freep(ptr noundef %17)
  br label %45

18:                                               ; preds = %2
  %19 = load ptr, ptr %4, align 8, !tbaa !50
  %20 = getelementptr inbounds nuw %struct.MpegTSFilter, ptr %19, i32 0, i32 5
  %21 = load i32, ptr %20, align 4, !tbaa !109
  %22 = icmp eq i32 %21, 0
  br i1 %22, label %23, label %44

23:                                               ; preds = %18
  call void @llvm.lifetime.start.p0(i64 8, ptr %6) #12
  %24 = load ptr, ptr %4, align 8, !tbaa !50
  %25 = getelementptr inbounds nuw %struct.MpegTSFilter, ptr %24, i32 0, i32 6
  %26 = getelementptr inbounds nuw %struct.MpegTSPESFilter, ptr %25, i32 0, i32 1
  %27 = load ptr, ptr %26, align 8, !tbaa !66
  store ptr %27, ptr %6, align 8, !tbaa !110
  %28 = load ptr, ptr %6, align 8, !tbaa !110
  %29 = getelementptr inbounds nuw %struct.PESContext, ptr %28, i32 0, i32 18
  call void @av_buffer_unref(ptr noundef %29)
  %30 = load ptr, ptr %6, align 8, !tbaa !110
  %31 = getelementptr inbounds nuw %struct.PESContext, ptr %30, i32 0, i32 5
  %32 = load ptr, ptr %31, align 8, !tbaa !112
  %33 = icmp ne ptr %32, null
  br i1 %33, label %34, label %39

34:                                               ; preds = %23
  %35 = load ptr, ptr %6, align 8, !tbaa !110
  %36 = getelementptr inbounds nuw %struct.PESContext, ptr %35, i32 0, i32 20
  %37 = load i32, ptr %36, align 8, !tbaa !245
  %38 = icmp ne i32 %37, 0
  br i1 %38, label %39, label %43

39:                                               ; preds = %34, %23
  %40 = load ptr, ptr %4, align 8, !tbaa !50
  %41 = getelementptr inbounds nuw %struct.MpegTSFilter, ptr %40, i32 0, i32 6
  %42 = getelementptr inbounds nuw %struct.MpegTSPESFilter, ptr %41, i32 0, i32 1
  call void @av_freep(ptr noundef %42)
  br label %43

43:                                               ; preds = %39, %34
  call void @llvm.lifetime.end.p0(i64 8, ptr %6) #12
  br label %44

44:                                               ; preds = %43, %18
  br label %45

45:                                               ; preds = %44, %14
  %46 = load ptr, ptr %4, align 8, !tbaa !50
  call void @av_free(ptr noundef %46)
  %47 = load ptr, ptr %3, align 8, !tbaa !20
  %48 = getelementptr inbounds nuw %struct.MpegTSContext, ptr %47, i32 0, i32 23
  %49 = load i32, ptr %5, align 4, !tbaa !11
  %50 = sext i32 %49 to i64
  %51 = getelementptr inbounds [8192 x ptr], ptr %48, i64 0, i64 %50
  store ptr null, ptr %51, align 8, !tbaa !50
  call void @llvm.lifetime.end.p0(i64 4, ptr %5) #12
  ret void
}