; Function Attrs: nounwind uwtable
define internal fastcc void @mpegts_close_filter(ptr noundef writeonly captures(none) %0, ptr noundef %1) unnamed_addr #0 {
  %3 = load i32, ptr %1, align 8, !tbaa !63
  %4 = getelementptr inbounds nuw i8, ptr %1, i64 28
  %5 = load i32, ptr %4, align 4, !tbaa !62
  switch i32 %5, label %17 [
    i32 1, label %6
    i32 0, label %8
  ]

6:                                                ; preds = %2
  %7 = getelementptr inbounds nuw i8, ptr %1, i64 56
  br label %.sink.split

8:                                                ; preds = %2
  %9 = getelementptr inbounds nuw i8, ptr %1, i64 40
  %10 = load ptr, ptr %9, align 8, !tbaa !9
  %11 = getelementptr inbounds nuw i8, ptr %10, i64 368
  tail call void @av_buffer_unref(ptr noundef nonnull %11) #12
  %12 = getelementptr inbounds nuw i8, ptr %10, i64 32
  %13 = load ptr, ptr %12, align 8, !tbaa !103
  %.not = icmp eq ptr %13, null
  br i1 %.not, label %.sink.split, label %14

14:                                               ; preds = %8
  %15 = getelementptr inbounds nuw i8, ptr %10, i64 432
  %16 = load i32, ptr %15, align 8, !tbaa !121
  %.not11 = icmp eq i32 %16, 0
  br i1 %.not11, label %17, label %.sink.split

.sink.split:                                      ; preds = %8, %14, %6
  %.sink = phi ptr [ %7, %6 ], [ %9, %14 ], [ %9, %8 ]
  tail call void @av_freep(ptr noundef nonnull %.sink) #12
  br label %17

17:                                               ; preds = %.sink.split, %14, %2
  tail call void @av_free(ptr noundef nonnull %1) #12
  %18 = getelementptr inbounds nuw i8, ptr %0, i64 8328
  %19 = sext i32 %3 to i64
  %20 = getelementptr inbounds [8192 x ptr], ptr %18, i64 0, i64 %19
  store ptr null, ptr %20, align 8, !tbaa !46
  ret void
}